target datalayout = "e-m:e-p270:32:32-p271:32:32-p272:64:64-i64:64-i128:128-f80:128-n8:16:32:64-S128"
target triple = "x86_64-pc-linux-gnu"

%struct.reassembly_table = type { ptr, ptr, ptr, ptr, ptr }
%struct.reassembly_table_functions = type { ptr, ptr, ptr, ptr, ptr, ptr }

@proto_register_fpp.ett = internal global [4 x ptr] [ptr @ett_fpp, ptr @ett_fpp_preamble, ptr @ett_fpp_fragment, ptr @ett_fpp_fragments], align 16
@.str.40 = private unnamed_addr constant [39 x i8] c"IEEE 802.3br Frame Preemption Protocol\00", align 1
@.str.41 = private unnamed_addr constant [26 x i8] c"Frame Preemption Protocol\00", align 1
@.str.42 = private unnamed_addr constant [4 x i8] c"fpp\00", align 1
@proto_fpp = internal global i32 0, align 4
@fpp_reassembly_table = internal global %struct.reassembly_table zeroinitializer, align 8
@addresses_reassembly_table_functions = external constant %struct.reassembly_table_functions, align 8
@fpp_handle = internal global ptr null, align 8

; Function Attrs: null_pointer_is_valid sspstrong uwtable
define hidden void @proto_register_fpp() #0 {
  %1 = alloca ptr, align 8
  call void @llvm.lifetime.start.p0(i64 8, ptr %1) #8
  %2 = call i32 @proto_register_protocol(ptr noundef @.str.40, ptr noundef @.str.41, ptr noundef @.str.42)
  store i32 %2, ptr @proto_fpp, align 4
  %3 = load i32, ptr @proto_fpp, align 4
  call void @proto_register_field_array(i32 noundef %3, ptr noundef @proto_register_fpp.hf, i32 noundef 19)
  call void @proto_register_subtree_array(ptr noundef @proto_register_fpp.ett, i32 noundef 4)
  %4 = load i32, ptr @proto_fpp, align 4
  %5 = call ptr @expert_register_protocol(i32 noundef %4)
  store ptr %5, ptr %1, align 8
  %6 = load ptr, ptr %1, align 8
  call void @expert_register_field_array(ptr noundef %6, ptr noundef @proto_register_fpp.ei, i32 noundef 2)
  call void @reassembly_table_register(ptr noundef @fpp_reassembly_table, ptr noundef @addresses_reassembly_table_functions)
  %7 = load i32, ptr @proto_fpp, align 4
  %8 = call ptr @register_dissector(ptr noundef @.str.42, ptr noundef @dissect_fpp, i32 noundef %7)
  store ptr %8, ptr @fpp_handle, align 8
  call void @llvm.lifetime.end.p0(i64 8, ptr %1) #8
  ret void
}