; Function Attrs: null_pointer_is_valid sspstrong uwtable
define hidden void @proto_register_fpp() local_unnamed_addr #0 {
  %1 = tail call i32 @proto_register_protocol(ptr noundef nonnull @.str.40, ptr noundef nonnull @.str.41, ptr noundef nonnull @.str.42)
  store i32 %1, ptr @proto_fpp, align 4
  tail call void @proto_register_field_array(i32 noundef %1, ptr noundef nonnull @proto_register_fpp.hf, i32 noundef 19)
  tail call void @proto_register_subtree_array(ptr noundef nonnull @proto_register_fpp.ett, i32 noundef 4)
  %2 = load i32, ptr @proto_fpp, align 4
  %3 = tail call ptr @expert_register_protocol(i32 noundef %2)
  tail call void @expert_register_field_array(ptr noundef %3, ptr noundef nonnull @proto_register_fpp.ei, i32 noundef 2)
  tail call void @reassembly_table_register(ptr noundef nonnull @fpp_reassembly_table, ptr noundef nonnull @addresses_reassembly_table_functions)
  %4 = load i32, ptr @proto_fpp, align 4
  %5 = tail call ptr @register_dissector(ptr noundef nonnull @.str.42, ptr noundef nonnull @dissect_fpp, i32 noundef %4)
  store ptr %5, ptr @fpp_handle, align 8
  ret void
}